#include <math.h>
#include <stdio.h>
#include <stdlib.h>
#include <string.h>

void main()
{
	int a[300];
	int i=1,j,max,max2,n=0;
	scanf("%d",&a[0]);
	while((scanf(",%d",&a[i])>0))
		i++;
	if(i==1) printf("No\n");
	else
	{
		max=a[0];
		max2=0;
		for(j=1;j<i;j++)
		{
			if(max<a[j]) 
				max=a[j];
		}
		for(j=0;j<i;j++)
		{
			if(a[j]<max&&a[j]>max2)
			max2=a[j];
		}
		if(max2==0) printf("No\n");
		else
		printf("%d",max2);
	}
}

